target datalayout = "e-m:e-p270:32:32-p271:32:32-p272:64:64-i64:64-i128:128-f80:128-n8:16:32:64-S128"
target triple = "x86_64-pc-linux-gnu"

%struct.ident_t = type { i32, i32, i32, i32, ptr }
%struct.Qureg = type { i32, i32, i32, i64, i64, i32, i32, %struct.ComplexArray, %struct.ComplexArray, %struct.ComplexArray, ptr, ptr, ptr, ptr, ptr, ptr }
%struct.ComplexArray = type { ptr, ptr }
%struct.Complex = type { double, double }

@3 = private unnamed_addr constant %struct.ident_t { i32 0, i32 2, i32 0, i32 22, ptr @0 }, align 8

; Function Attrs: nounwind uwtable
define void @statevec_controlledUnitaryDistributed(ptr noundef byval(%struct.Qureg) align 8 %0, i32 noundef %1, double %2, double %3, double %4, double %5, ptr %6, ptr %7, ptr %8, ptr %9, ptr noundef byval(%struct.ComplexArray) align 8 %10) #0 {
  %12 = alloca %struct.Complex, align 8
  %13 = alloca %struct.Complex, align 8
  %14 = alloca %struct.ComplexArray, align 8
  %15 = alloca %struct.ComplexArray, align 8
  %16 = alloca i32, align 4
  %17 = alloca i64, align 8
  %18 = alloca i64, align 8
  %19 = alloca i64, align 8
  %20 = alloca double, align 8
  %21 = alloca double, align 8
  %22 = alloca double, align 8
  %23 = alloca double, align 8
  %24 = alloca ptr, align 8
  %25 = alloca ptr, align 8
  %26 = alloca ptr, align 8
  %27 = alloca ptr, align 8
  %28 = alloca ptr, align 8
  %29 = alloca ptr, align 8
  %30 = getelementptr inbounds nuw { double, double }, ptr %12, i32 0, i32 0
  store double %2, ptr %30, align 8
  %31 = getelementptr inbounds nuw { double, double }, ptr %12, i32 0, i32 1
  store double %3, ptr %31, align 8
  %32 = getelementptr inbounds nuw { double, double }, ptr %13, i32 0, i32 0
  store double %4, ptr %32, align 8
  %33 = getelementptr inbounds nuw { double, double }, ptr %13, i32 0, i32 1
  store double %5, ptr %33, align 8
  %34 = getelementptr inbounds nuw { ptr, ptr }, ptr %14, i32 0, i32 0
  store ptr %6, ptr %34, align 8
  %35 = getelementptr inbounds nuw { ptr, ptr }, ptr %14, i32 0, i32 1
  store ptr %7, ptr %35, align 8
  %36 = getelementptr inbounds nuw { ptr, ptr }, ptr %15, i32 0, i32 0
  store ptr %8, ptr %36, align 8
  %37 = getelementptr inbounds nuw { ptr, ptr }, ptr %15, i32 0, i32 1
  store ptr %9, ptr %37, align 8
  store i32 %1, ptr %16, align 4, !tbaa !8
  call void @llvm.lifetime.start.p0(i64 8, ptr %17) #3
  %38 = getelementptr inbounds nuw %struct.Qureg, ptr %0, i32 0, i32 3
  %39 = load i64, ptr %38, align 8, !tbaa !12
  store i64 %39, ptr %17, align 8, !tbaa !4
  call void @llvm.lifetime.start.p0(i64 8, ptr %18) #3
  %40 = getelementptr inbounds nuw %struct.Qureg, ptr %0, i32 0, i32 3
  %41 = load i64, ptr %40, align 8, !tbaa !12
  store i64 %41, ptr %18, align 8, !tbaa !4
  call void @llvm.lifetime.start.p0(i64 8, ptr %19) #3
  %42 = getelementptr inbounds nuw %struct.Qureg, ptr %0, i32 0, i32 5
  %43 = load i32, ptr %42, align 8, !tbaa !26
  %44 = sext i32 %43 to i64
  store i64 %44, ptr %19, align 8, !tbaa !4
  call void @llvm.lifetime.start.p0(i64 8, ptr %20) #3
  %45 = getelementptr inbounds nuw %struct.Complex, ptr %12, i32 0, i32 0
  %46 = load double, ptr %45, align 8, !tbaa !37
  store double %46, ptr %20, align 8, !tbaa !10
  call void @llvm.lifetime.start.p0(i64 8, ptr %21) #3
  %47 = getelementptr inbounds nuw %struct.Complex, ptr %12, i32 0, i32 1
  %48 = load double, ptr %47, align 8, !tbaa !39
  store double %48, ptr %21, align 8, !tbaa !10
  call void @llvm.lifetime.start.p0(i64 8, ptr %22) #3
  %49 = getelementptr inbounds nuw %struct.Complex, ptr %13, i32 0, i32 0
  %50 = load double, ptr %49, align 8, !tbaa !37
  store double %50, ptr %22, align 8, !tbaa !10
  call void @llvm.lifetime.start.p0(i64 8, ptr %23) #3
  %51 = getelementptr inbounds nuw %struct.Complex, ptr %13, i32 0, i32 1
  %52 = load double, ptr %51, align 8, !tbaa !39
  store double %52, ptr %23, align 8, !tbaa !10
  call void @llvm.lifetime.start.p0(i64 8, ptr %24) #3
  %53 = getelementptr inbounds nuw %struct.ComplexArray, ptr %14, i32 0, i32 0
  %54 = load ptr, ptr %53, align 8, !tbaa !78
  store ptr %54, ptr %24, align 8, !tbaa !25
  call void @llvm.lifetime.start.p0(i64 8, ptr %25) #3
  %55 = getelementptr inbounds nuw %struct.ComplexArray, ptr %14, i32 0, i32 1
  %56 = load ptr, ptr %55, align 8, !tbaa !79
  store ptr %56, ptr %25, align 8, !tbaa !25
  call void @llvm.lifetime.start.p0(i64 8, ptr %26) #3
  %57 = getelementptr inbounds nuw %struct.ComplexArray, ptr %15, i32 0, i32 0
  %58 = load ptr, ptr %57, align 8, !tbaa !78
  store ptr %58, ptr %26, align 8, !tbaa !25
  call void @llvm.lifetime.start.p0(i64 8, ptr %27) #3
  %59 = getelementptr inbounds nuw %struct.ComplexArray, ptr %15, i32 0, i32 1
  %60 = load ptr, ptr %59, align 8, !tbaa !79
  store ptr %60, ptr %27, align 8, !tbaa !25
  call void @llvm.lifetime.start.p0(i64 8, ptr %28) #3
  %61 = getelementptr inbounds nuw %struct.ComplexArray, ptr %10, i32 0, i32 0
  %62 = load ptr, ptr %61, align 8, !tbaa !78
  store ptr %62, ptr %28, align 8, !tbaa !25
  call void @llvm.lifetime.start.p0(i64 8, ptr %29) #3
  %63 = getelementptr inbounds nuw %struct.ComplexArray, ptr %10, i32 0, i32 1
  %64 = load ptr, ptr %63, align 8, !tbaa !79
  store ptr %64, ptr %29, align 8, !tbaa !25
  call void (ptr, i32, ptr, ...) @__kmpc_fork_call(ptr @3, i32 14, ptr @statevec_controlledUnitaryDistributed.omp_outlined, ptr %17, ptr %16, ptr %19, ptr %18, ptr %24, ptr %25, ptr %26, ptr %27, ptr %28, ptr %20, ptr %21, ptr %22, ptr %23, ptr %29)
  call void @llvm.lifetime.end.p0(i64 8, ptr %29) #3
  call void @llvm.lifetime.end.p0(i64 8, ptr %28) #3
  call void @llvm.lifetime.end.p0(i64 8, ptr %27) #3
  call void @llvm.lifetime.end.p0(i64 8, ptr %26) #3
  call void @llvm.lifetime.end.p0(i64 8, ptr %25) #3
  call void @llvm.lifetime.end.p0(i64 8, ptr %24) #3
  call void @llvm.lifetime.end.p0(i64 8, ptr %23) #3
  call void @llvm.lifetime.end.p0(i64 8, ptr %22) #3
  call void @llvm.lifetime.end.p0(i64 8, ptr %21) #3
  call void @llvm.lifetime.end.p0(i64 8, ptr %20) #3
  call void @llvm.lifetime.end.p0(i64 8, ptr %19) #3
  call void @llvm.lifetime.end.p0(i64 8, ptr %18) #3
  call void @llvm.lifetime.end.p0(i64 8, ptr %17) #3
  ret void
}