; Function Attrs: nounwind uwtable
define void @statevec_controlledUnitaryDistributed(ptr noundef readonly byval(%struct.Qureg) align 8 captures(none) %0, i32 noundef %1, double %2, double %3, double %4, double %5, ptr %6, ptr %7, ptr %8, ptr %9, ptr noundef readonly byval(%struct.ComplexArray) align 8 captures(none) %10) local_unnamed_addr #1 {
  %12 = alloca i32, align 4
  %13 = alloca i64, align 8
  %14 = alloca i64, align 8
  %15 = alloca i64, align 8
  %16 = alloca double, align 8
  %17 = alloca double, align 8
  %18 = alloca double, align 8
  %19 = alloca double, align 8
  %20 = alloca ptr, align 8
  %21 = alloca ptr, align 8
  %22 = alloca ptr, align 8
  %23 = alloca ptr, align 8
  %24 = alloca ptr, align 8
  %25 = alloca ptr, align 8
  store i32 %1, ptr %12, align 4, !tbaa !18
  call void @llvm.lifetime.start.p0(i64 8, ptr nonnull %13) #4
  %26 = getelementptr inbounds nuw i8, ptr %0, i64 16
  %27 = load i64, ptr %26, align 8, !tbaa !8
  store i64 %27, ptr %13, align 8, !tbaa !16
  call void @llvm.lifetime.start.p0(i64 8, ptr nonnull %14) #4
  store i64 %27, ptr %14, align 8, !tbaa !16
  call void @llvm.lifetime.start.p0(i64 8, ptr nonnull %15) #4
  %28 = getelementptr inbounds nuw i8, ptr %0, i64 32
  %29 = load i32, ptr %28, align 8, !tbaa !19
  %30 = sext i32 %29 to i64
  store i64 %30, ptr %15, align 8, !tbaa !16
  call void @llvm.lifetime.start.p0(i64 8, ptr nonnull %16) #4
  store double %2, ptr %16, align 8, !tbaa !4
  call void @llvm.lifetime.start.p0(i64 8, ptr nonnull %17) #4
  store double %3, ptr %17, align 8, !tbaa !4
  call void @llvm.lifetime.start.p0(i64 8, ptr nonnull %18) #4
  store double %4, ptr %18, align 8, !tbaa !4
  call void @llvm.lifetime.start.p0(i64 8, ptr nonnull %19) #4
  store double %5, ptr %19, align 8, !tbaa !4
  call void @llvm.lifetime.start.p0(i64 8, ptr nonnull %20) #4
  store ptr %6, ptr %20, align 8, !tbaa !26
  call void @llvm.lifetime.start.p0(i64 8, ptr nonnull %21) #4
  store ptr %7, ptr %21, align 8, !tbaa !26
  call void @llvm.lifetime.start.p0(i64 8, ptr nonnull %22) #4
  store ptr %8, ptr %22, align 8, !tbaa !26
  call void @llvm.lifetime.start.p0(i64 8, ptr nonnull %23) #4
  store ptr %9, ptr %23, align 8, !tbaa !26
  call void @llvm.lifetime.start.p0(i64 8, ptr nonnull %24) #4
  %31 = load ptr, ptr %10, align 8, !tbaa !57
  store ptr %31, ptr %24, align 8, !tbaa !26
  call void @llvm.lifetime.start.p0(i64 8, ptr nonnull %25) #4
  %32 = getelementptr inbounds nuw i8, ptr %10, i64 8
  %33 = load ptr, ptr %32, align 8, !tbaa !58
  store ptr %33, ptr %25, align 8, !tbaa !26
  call void (ptr, i32, ptr, ...) @__kmpc_fork_call(ptr nonnull @3, i32 14, ptr nonnull @statevec_controlledUnitaryDistributed.omp_outlined, ptr nonnull %13, ptr nonnull %12, ptr nonnull %15, ptr nonnull %14, ptr nonnull %20, ptr nonnull %21, ptr nonnull %22, ptr nonnull %23, ptr nonnull %24, ptr nonnull %16, ptr nonnull %17, ptr nonnull %18, ptr nonnull %19, ptr nonnull %25)
  call void @llvm.lifetime.end.p0(i64 8, ptr nonnull %25) #4
  call void @llvm.lifetime.end.p0(i64 8, ptr nonnull %24) #4
  call void @llvm.lifetime.end.p0(i64 8, ptr nonnull %23) #4
  call void @llvm.lifetime.end.p0(i64 8, ptr nonnull %22) #4
  call void @llvm.lifetime.end.p0(i64 8, ptr nonnull %21) #4
  call void @llvm.lifetime.end.p0(i64 8, ptr nonnull %20) #4
  call void @llvm.lifetime.end.p0(i64 8, ptr nonnull %19) #4
  call void @llvm.lifetime.end.p0(i64 8, ptr nonnull %18) #4
  call void @llvm.lifetime.end.p0(i64 8, ptr nonnull %17) #4
  call void @llvm.lifetime.end.p0(i64 8, ptr nonnull %16) #4
  call void @llvm.lifetime.end.p0(i64 8, ptr nonnull %15) #4
  call void @llvm.lifetime.end.p0(i64 8, ptr nonnull %14) #4
  call void @llvm.lifetime.end.p0(i64 8, ptr nonnull %13) #4
  ret void
}